target datalayout = "e-m:e-p270:32:32-p271:32:32-p272:64:64-i64:64-i128:128-f80:128-n8:16:32:64-S128"
target triple = "x86_64-pc-linux-gnu"

@debug = external global ptr, align 8
@.str.42 = private unnamed_addr constant [22 x i8] c"Before normalization\0A\00", align 1
@.str.43 = private unnamed_addr constant [11 x i8] c"%5d  %10f\0A\00", align 1
@.str.44 = private unnamed_addr constant [21 x i8] c"After normalization\0A\00", align 1

; Function Attrs: mustprogress nounwind uwtable
define linkonce_odr noundef float @_ZSt4fabsf(float noundef %0) #2 comdat {
  %2 = alloca float, align 4
  store float %0, ptr %2, align 4
  %3 = load float, ptr %2, align 4
  %4 = call float @llvm.fabs.f32(float %3)
  ret float %4
}

; Function Attrs: mustprogress uwtable
define internal void @_ZL13normalize_acfiPf(i32 noundef %0, ptr noundef %1) #0 {
  %3 = alloca i32, align 4
  %4 = alloca ptr, align 8
  %5 = alloca i32, align 4
  %6 = alloca double, align 8
  store i32 %0, ptr %3, align 4
  store ptr %1, ptr %4, align 8
  %7 = load ptr, ptr @debug, align 8
  %8 = icmp ne ptr %7, null
  br i1 %8, label %9, label %30

9:                                                ; preds = %2
  %10 = load ptr, ptr @debug, align 8
  %11 = call i32 (ptr, ptr, ...) @fprintf(ptr noundef %10, ptr noundef @.str.42) #13
  store i32 0, ptr %5, align 4
  br label %12

12:                                               ; preds = %26, %9
  %13 = load i32, ptr %5, align 4
  %14 = load i32, ptr %3, align 4
  %15 = icmp slt i32 %13, %14
  br i1 %15, label %16, label %29

16:                                               ; preds = %12
  %17 = load ptr, ptr @debug, align 8
  %18 = load i32, ptr %5, align 4
  %19 = load ptr, ptr %4, align 8
  %20 = load i32, ptr %5, align 4
  %21 = sext i32 %20 to i64
  %22 = getelementptr inbounds float, ptr %19, i64 %21
  %23 = load float, ptr %22, align 4
  %24 = fpext float %23 to double
  %25 = call i32 (ptr, ptr, ...) @fprintf(ptr noundef %17, ptr noundef @.str.43, i32 noundef %18, double noundef %24) #13
  br label %26

26:                                               ; preds = %16
  %27 = load i32, ptr %5, align 4
  %28 = add nsw i32 %27, 1
  store i32 %28, ptr %5, align 4
  br label %12, !llvm.loop !32

29:                                               ; preds = %12
  br label %30

30:                                               ; preds = %29, %2
  %31 = load ptr, ptr %4, align 8
  %32 = getelementptr inbounds float, ptr %31, i64 0
  %33 = load float, ptr %32, align 4
  %34 = call noundef float @_ZSt4fabsf(float noundef %33)
  %35 = fpext float %34 to double
  %36 = fcmp olt double %35, 1.000000e-05
  br i1 %36, label %37, label %38

37:                                               ; preds = %30
  store double 1.000000e+00, ptr %6, align 8
  br label %44

38:                                               ; preds = %30
  %39 = load ptr, ptr %4, align 8
  %40 = getelementptr inbounds float, ptr %39, i64 0
  %41 = load float, ptr %40, align 4
  %42 = fpext float %41 to double
  %43 = fdiv double 1.000000e+00, %42
  store double %43, ptr %6, align 8
  br label %44

44:                                               ; preds = %38, %37
  store i32 0, ptr %5, align 4
  br label %45

45:                                               ; preds = %59, %44
  %46 = load i32, ptr %5, align 4
  %47 = load i32, ptr %3, align 4
  %48 = icmp slt i32 %46, %47
  br i1 %48, label %49, label %62

49:                                               ; preds = %45
  %50 = load double, ptr %6, align 8
  %51 = load ptr, ptr %4, align 8
  %52 = load i32, ptr %5, align 4
  %53 = sext i32 %52 to i64
  %54 = getelementptr inbounds float, ptr %51, i64 %53
  %55 = load float, ptr %54, align 4
  %56 = fpext float %55 to double
  %57 = fmul double %56, %50
  %58 = fptrunc double %57 to float
  store float %58, ptr %54, align 4
  br label %59

59:                                               ; preds = %49
  %60 = load i32, ptr %5, align 4
  %61 = add nsw i32 %60, 1
  store i32 %61, ptr %5, align 4
  br label %45, !llvm.loop !33

62:                                               ; preds = %45
  %63 = load ptr, ptr @debug, align 8
  %64 = icmp ne ptr %63, null
  br i1 %64, label %65, label %86

65:                                               ; preds = %62
  %66 = load ptr, ptr @debug, align 8
  %67 = call i32 (ptr, ptr, ...) @fprintf(ptr noundef %66, ptr noundef @.str.44) #13
  store i32 0, ptr %5, align 4
  br label %68

68:                                               ; preds = %82, %65
  %69 = load i32, ptr %5, align 4
  %70 = load i32, ptr %3, align 4
  %71 = icmp slt i32 %69, %70
  br i1 %71, label %72, label %85

72:                                               ; preds = %68
  %73 = load ptr, ptr @debug, align 8
  %74 = load i32, ptr %5, align 4
  %75 = load ptr, ptr %4, align 8
  %76 = load i32, ptr %5, align 4
  %77 = sext i32 %76 to i64
  %78 = getelementptr inbounds float, ptr %75, i64 %77
  %79 = load float, ptr %78, align 4
  %80 = fpext float %79 to double
  %81 = call i32 (ptr, ptr, ...) @fprintf(ptr noundef %73, ptr noundef @.str.43, i32 noundef %74, double noundef %80) #13
  br label %82

82:                                               ; preds = %72
  %83 = load i32, ptr %5, align 4
  %84 = add nsw i32 %83, 1
  store i32 %84, ptr %5, align 4
  br label %68, !llvm.loop !34

85:                                               ; preds = %68
  br label %86

86:                                               ; preds = %85, %62
  ret void
}