; Function Attrs: mustprogress nofree nounwind uwtable
define internal fastcc void @_ZL13normalize_acfiPf(i32 noundef %0, ptr nocapture noundef %1) unnamed_addr #6 {
  %3 = load ptr, ptr @debug, align 8
  %.not = icmp eq ptr %3, null
  br i1 %.not, label %.loopexit24, label %4

4:                                                ; preds = %2
  %5 = tail call i64 @fwrite(ptr nonnull @.str.42, i64 21, i64 1, ptr nonnull %3)
  %6 = icmp sgt i32 %0, 0
  br i1 %6, label %.lr.ph.preheader, label %.loopexit24

.lr.ph.preheader:                                 ; preds = %4
  %wide.trip.count = zext nneg i32 %0 to i64
  br label %.lr.ph

.lr.ph:                                           ; preds = %.lr.ph.preheader, %.lr.ph
  %indvars.iv = phi i64 [ 0, %.lr.ph.preheader ], [ %indvars.iv.next, %.lr.ph ]
  %7 = load ptr, ptr @debug, align 8
  %8 = getelementptr inbounds float, ptr %1, i64 %indvars.iv
  %9 = load float, ptr %8, align 4
  %10 = fpext float %9 to double
  %11 = trunc nuw nsw i64 %indvars.iv to i32
  %12 = tail call i32 (ptr, ptr, ...) @fprintf(ptr noundef %7, ptr noundef nonnull @.str.43, i32 noundef %11, double noundef %10) #19
  %indvars.iv.next = add nuw nsw i64 %indvars.iv, 1
  %exitcond.not = icmp eq i64 %indvars.iv.next, %wide.trip.count
  br i1 %exitcond.not, label %.loopexit24, label %.lr.ph, !llvm.loop !32

.loopexit24:                                      ; preds = %.lr.ph, %4, %2
  %13 = load float, ptr %1, align 4
  %14 = tail call noundef float @llvm.fabs.f32(float %13)
  %15 = fpext float %14 to double
  %16 = fcmp olt double %15, 1.000000e-05
  %17 = fpext float %13 to double
  %18 = fdiv double 1.000000e+00, %17
  %.0 = select i1 %16, double 1.000000e+00, double %18
  %19 = icmp sgt i32 %0, 0
  br i1 %19, label %.lr.ph27.preheader, label %._crit_edge.thread

.lr.ph27.preheader:                               ; preds = %.loopexit24
  %wide.trip.count35 = zext nneg i32 %0 to i64
  br label %.lr.ph27

.lr.ph27:                                         ; preds = %.lr.ph27.preheader, %.lr.ph27
  %indvars.iv32 = phi i64 [ 0, %.lr.ph27.preheader ], [ %indvars.iv.next33, %.lr.ph27 ]
  %20 = getelementptr inbounds float, ptr %1, i64 %indvars.iv32
  %21 = load float, ptr %20, align 4
  %22 = fpext float %21 to double
  %23 = fmul double %.0, %22
  %24 = fptrunc double %23 to float
  store float %24, ptr %20, align 4
  %indvars.iv.next33 = add nuw nsw i64 %indvars.iv32, 1
  %exitcond36.not = icmp eq i64 %indvars.iv.next33, %wide.trip.count35
  br i1 %exitcond36.not, label %._crit_edge, label %.lr.ph27, !llvm.loop !33

._crit_edge:                                      ; preds = %.lr.ph27
  %25 = load ptr, ptr @debug, align 8
  %.not23 = icmp eq ptr %25, null
  br i1 %.not23, label %.loopexit, label %28

._crit_edge.thread:                               ; preds = %.loopexit24
  %26 = load ptr, ptr @debug, align 8
  %.not2342 = icmp eq ptr %26, null
  br i1 %.not2342, label %.loopexit, label %.thread

.thread:                                          ; preds = %._crit_edge.thread
  %27 = tail call i64 @fwrite(ptr nonnull @.str.44, i64 20, i64 1, ptr nonnull %26)
  br label %.loopexit

28:                                               ; preds = %._crit_edge
  %29 = tail call i64 @fwrite(ptr nonnull @.str.44, i64 20, i64 1, ptr nonnull %25)
  br i1 %19, label %.lr.ph30.preheader, label %.loopexit

.lr.ph30.preheader:                               ; preds = %28
  %wide.trip.count40 = zext nneg i32 %0 to i64
  br label %.lr.ph30

.lr.ph30:                                         ; preds = %.lr.ph30.preheader, %.lr.ph30
  %indvars.iv37 = phi i64 [ 0, %.lr.ph30.preheader ], [ %indvars.iv.next38, %.lr.ph30 ]
  %30 = load ptr, ptr @debug, align 8
  %31 = getelementptr inbounds float, ptr %1, i64 %indvars.iv37
  %32 = load float, ptr %31, align 4
  %33 = fpext float %32 to double
  %34 = trunc nuw nsw i64 %indvars.iv37 to i32
  %35 = tail call i32 (ptr, ptr, ...) @fprintf(ptr noundef %30, ptr noundef nonnull @.str.43, i32 noundef %34, double noundef %33) #19
  %indvars.iv.next38 = add nuw nsw i64 %indvars.iv37, 1
  %exitcond41.not = icmp eq i64 %indvars.iv.next38, %wide.trip.count40
  br i1 %exitcond41.not, label %.loopexit, label %.lr.ph30, !llvm.loop !34

.loopexit:                                        ; preds = %.lr.ph30, %.thread, %._crit_edge.thread, %28, %._crit_edge
  ret void
}